; Function Attrs: nounwind uwtable
define hidden void @nghttp2_hd_deflate_free(ptr noundef readonly captures(none) %0) local_unnamed_addr #0 {
  %2 = getelementptr inbounds nuw i8, ptr %0, i64 32
  %3 = load ptr, ptr %2, align 8, !tbaa !33
  %4 = getelementptr inbounds nuw i8, ptr %0, i64 24
  %5 = load i64, ptr %4, align 8, !tbaa !62
  %.not.i.i = icmp eq i64 %5, 0
  br i1 %.not.i.i, label %hd_context_free.exit, label %hd_ringbuf_get.exit.lr.ph.i.i

hd_ringbuf_get.exit.lr.ph.i.i:                    ; preds = %1
  %6 = getelementptr inbounds nuw i8, ptr %0, i64 16
  %7 = getelementptr inbounds nuw i8, ptr %0, i64 8
  br label %hd_ringbuf_get.exit.i.i

hd_ringbuf_get.exit.i.i:                          ; preds = %hd_ringbuf_get.exit.i.i, %hd_ringbuf_get.exit.lr.ph.i.i
  %.011.i.i = phi i64 [ 0, %hd_ringbuf_get.exit.lr.ph.i.i ], [ %18, %hd_ringbuf_get.exit.i.i ]
  %8 = load ptr, ptr %0, align 8, !tbaa !40
  %9 = load i64, ptr %6, align 8, !tbaa !63
  %10 = add i64 %9, %.011.i.i
  %11 = load i64, ptr %7, align 8, !tbaa !41
  %12 = and i64 %10, %11
  %13 = getelementptr inbounds nuw ptr, ptr %8, i64 %12
  %14 = load ptr, ptr %13, align 8, !tbaa !64
  %15 = getelementptr inbounds nuw i8, ptr %14, i64 8
  %16 = load ptr, ptr %15, align 8, !tbaa !32
  tail call void @nghttp2_rcbuf_decref(ptr noundef %16) #12
  %17 = load ptr, ptr %14, align 8, !tbaa !31
  tail call void @nghttp2_rcbuf_decref(ptr noundef %17) #12
  tail call void @nghttp2_mem_free(ptr noundef %3, ptr noundef nonnull %14) #12
  %18 = add nuw i64 %.011.i.i, 1
  %19 = load i64, ptr %4, align 8, !tbaa !62
  %20 = icmp ult i64 %18, %19
  br i1 %20, label %hd_ringbuf_get.exit.i.i, label %hd_context_free.exit, !llvm.loop !65

hd_context_free.exit:                             ; preds = %hd_ringbuf_get.exit.i.i, %1
  %21 = load ptr, ptr %0, align 8, !tbaa !40
  tail call void @nghttp2_mem_free(ptr noundef %3, ptr noundef %21) #12
  ret void
}